target datalayout = "e-m:e-p270:32:32-p271:32:32-p272:64:64-i64:64-i128:128-f80:128-n8:16:32:64-S128"
target triple = "x86_64-pc-linux-gnu"

%struct.URLContext = type { ptr, ptr, ptr, ptr, i32, i32, i32, i32, %struct.AVIOInterruptCB, i64, ptr, ptr, i32 }
%struct.AVIOInterruptCB = type { ptr, ptr }
%struct.SubfileContext = type { ptr, ptr, i64, i64, i64 }

@.str.4 = private unnamed_addr constant [32 x i8] c"Impossible to seek in file: %s\0A\00", align 1
@.str.5 = private unnamed_addr constant [30 x i8] c"Assertion %s failed at %s:%d\0A\00", align 1
@.str.6 = private unnamed_addr constant [2 x i8] c"0\00", align 1
@.str.7 = private unnamed_addr constant [22 x i8] c"libavformat/subfile.c\00", align 1

; Function Attrs: inlinehint nounwind uwtable
define internal ptr @av_make_error_string(ptr noundef %0, i64 noundef %1, i32 noundef %2) #3 {
  %4 = alloca ptr, align 8
  %5 = alloca i64, align 8
  %6 = alloca i32, align 4
  store ptr %0, ptr %4, align 8, !tbaa !9
  store i64 %1, ptr %5, align 8, !tbaa !30
  store i32 %2, ptr %6, align 4, !tbaa !11
  %7 = load i32, ptr %6, align 4, !tbaa !11
  %8 = load ptr, ptr %4, align 8, !tbaa !9
  %9 = load i64, ptr %5, align 8, !tbaa !30
  %10 = call i32 @av_strerror(i32 noundef %7, ptr noundef %8, i64 noundef %9)
  %11 = load ptr, ptr %4, align 8, !tbaa !9
  ret ptr %11
}

; Function Attrs: nounwind uwtable
define internal i32 @slave_seek(ptr noundef %0) #0 {
  %2 = alloca i32, align 4
  %3 = alloca ptr, align 8
  %4 = alloca ptr, align 8
  %5 = alloca i64, align 8
  %6 = alloca [64 x i8], align 1
  %7 = alloca i32, align 4
  store ptr %0, ptr %3, align 8, !tbaa !4
  call void @llvm.lifetime.start.p0(i64 8, ptr %4) #6
  %8 = load ptr, ptr %3, align 8, !tbaa !4
  %9 = getelementptr inbounds nuw %struct.URLContext, ptr %8, i32 0, i32 2
  %10 = load ptr, ptr %9, align 8, !tbaa !16
  store ptr %10, ptr %4, align 8, !tbaa !22
  call void @llvm.lifetime.start.p0(i64 8, ptr %5) #6
  %11 = load ptr, ptr %4, align 8, !tbaa !22
  %12 = getelementptr inbounds nuw %struct.SubfileContext, ptr %11, i32 0, i32 1
  %13 = load ptr, ptr %12, align 8, !tbaa !31
  %14 = load ptr, ptr %4, align 8, !tbaa !22
  %15 = getelementptr inbounds nuw %struct.SubfileContext, ptr %14, i32 0, i32 4
  %16 = load i64, ptr %15, align 8, !tbaa !29
  %17 = call i64 @ffurl_seek(ptr noundef %13, i64 noundef %16, i32 noundef 0)
  store i64 %17, ptr %5, align 8, !tbaa !30
  %18 = load ptr, ptr %4, align 8, !tbaa !22
  %19 = getelementptr inbounds nuw %struct.SubfileContext, ptr %18, i32 0, i32 4
  %20 = load i64, ptr %19, align 8, !tbaa !29
  %21 = icmp ne i64 %17, %20
  br i1 %21, label %22, label %34

22:                                               ; preds = %1
  %23 = load i64, ptr %5, align 8, !tbaa !30
  %24 = icmp sge i64 %23, 0
  br i1 %24, label %25, label %26

25:                                               ; preds = %22
  store i64 -558323010, ptr %5, align 8, !tbaa !30
  br label %26

26:                                               ; preds = %25, %22
  %27 = load ptr, ptr %3, align 8, !tbaa !4
  call void @llvm.memset.p0.i64(ptr align 1 %6, i8 0, i64 64, i1 false)
  %28 = getelementptr inbounds [64 x i8], ptr %6, i64 0, i64 0
  %29 = load i64, ptr %5, align 8, !tbaa !30
  %30 = trunc i64 %29 to i32
  %31 = call ptr @av_make_error_string(ptr noundef %28, i64 noundef 64, i32 noundef %30)
  call void (ptr, i32, ptr, ...) @av_log(ptr noundef %27, i32 noundef 16, ptr noundef @.str.4, ptr noundef %31)
  %32 = load i64, ptr %5, align 8, !tbaa !30
  %33 = trunc i64 %32 to i32
  store i32 %33, ptr %2, align 4
  store i32 1, ptr %7, align 4
  br label %35

34:                                               ; preds = %1
  store i32 0, ptr %2, align 4
  store i32 1, ptr %7, align 4
  br label %35

35:                                               ; preds = %34, %26
  call void @llvm.lifetime.end.p0(i64 8, ptr %5) #6
  call void @llvm.lifetime.end.p0(i64 8, ptr %4) #6
  %36 = load i32, ptr %2, align 4
  ret i32 %36
}

; Function Attrs: inlinehint nounwind uwtable
define internal i64 @ffurl_seek(ptr noundef %0, i64 noundef %1, i32 noundef %2) #3 {
  %4 = alloca ptr, align 8
  %5 = alloca i64, align 8
  %6 = alloca i32, align 4
  store ptr %0, ptr %4, align 8, !tbaa !4
  store i64 %1, ptr %5, align 8, !tbaa !30
  store i32 %2, ptr %6, align 4, !tbaa !11
  %7 = load ptr, ptr %4, align 8, !tbaa !4
  %8 = load i64, ptr %5, align 8, !tbaa !30
  %9 = load i32, ptr %6, align 4, !tbaa !11
  %10 = call i64 @ffurl_seek2(ptr noundef %7, i64 noundef %8, i32 noundef %9)
  ret i64 %10
}

; Function Attrs: nounwind uwtable
define internal i64 @subfile_seek(ptr noundef %0, i64 noundef %1, i32 noundef %2) #0 {
  %4 = alloca i64, align 8
  %5 = alloca ptr, align 8
  %6 = alloca i64, align 8
  %7 = alloca i32, align 4
  %8 = alloca ptr, align 8
  %9 = alloca i64, align 8
  %10 = alloca i64, align 8
  %11 = alloca i32, align 4
  %12 = alloca i32, align 4
  store ptr %0, ptr %5, align 8, !tbaa !4
  store i64 %1, ptr %6, align 8, !tbaa !30
  store i32 %2, ptr %7, align 4, !tbaa !11
  call void @llvm.lifetime.start.p0(i64 8, ptr %8) #6
  %13 = load ptr, ptr %5, align 8, !tbaa !4
  %14 = getelementptr inbounds nuw %struct.URLContext, ptr %13, i32 0, i32 2
  %15 = load ptr, ptr %14, align 8, !tbaa !16
  store ptr %15, ptr %8, align 8, !tbaa !22
  call void @llvm.lifetime.start.p0(i64 8, ptr %9) #6
  call void @llvm.lifetime.start.p0(i64 8, ptr %10) #6
  call void @llvm.lifetime.start.p0(i64 4, ptr %11) #6
  %16 = load i32, ptr %7, align 4, !tbaa !11
  %17 = icmp eq i32 %16, 65536
  br i1 %17, label %21, label %18

18:                                               ; preds = %3
  %19 = load i32, ptr %7, align 4, !tbaa !11
  %20 = icmp eq i32 %19, 2
  br i1 %20, label %21, label %36

21:                                               ; preds = %18, %3
  %22 = load ptr, ptr %8, align 8, !tbaa !22
  %23 = getelementptr inbounds nuw %struct.SubfileContext, ptr %22, i32 0, i32 3
  %24 = load i64, ptr %23, align 8, !tbaa !24
  store i64 %24, ptr %10, align 8, !tbaa !30
  %25 = load i64, ptr %10, align 8, !tbaa !30
  %26 = icmp eq i64 %25, 9223372036854775807
  br i1 %26, label %27, label %35

27:                                               ; preds = %21
  %28 = load ptr, ptr %8, align 8, !tbaa !22
  %29 = getelementptr inbounds nuw %struct.SubfileContext, ptr %28, i32 0, i32 1
  %30 = load ptr, ptr %29, align 8, !tbaa !31
  %31 = call i64 @ffurl_seek(ptr noundef %30, i64 noundef 0, i32 noundef 65536)
  store i64 %31, ptr %10, align 8, !tbaa !30
  %32 = icmp slt i64 %31, 0
  br i1 %32, label %33, label %35

33:                                               ; preds = %27
  %34 = load i64, ptr %10, align 8, !tbaa !30
  store i64 %34, ptr %4, align 8
  store i32 1, ptr %12, align 4
  br label %89

35:                                               ; preds = %27, %21
  br label %36

36:                                               ; preds = %35, %18
  %37 = load i32, ptr %7, align 4, !tbaa !11
  switch i32 %37, label %60 [
    i32 65536, label %38
    i32 0, label %44
    i32 1, label %50
    i32 2, label %56
  ]

38:                                               ; preds = %36
  %39 = load i64, ptr %10, align 8, !tbaa !30
  %40 = load ptr, ptr %8, align 8, !tbaa !22
  %41 = getelementptr inbounds nuw %struct.SubfileContext, ptr %40, i32 0, i32 2
  %42 = load i64, ptr %41, align 8, !tbaa !26
  %43 = sub nsw i64 %39, %42
  store i64 %43, ptr %4, align 8
  store i32 1, ptr %12, align 4
  br label %89

44:                                               ; preds = %36
  %45 = load ptr, ptr %8, align 8, !tbaa !22
  %46 = getelementptr inbounds nuw %struct.SubfileContext, ptr %45, i32 0, i32 2
  %47 = load i64, ptr %46, align 8, !tbaa !26
  %48 = load i64, ptr %6, align 8, !tbaa !30
  %49 = add nsw i64 %47, %48
  store i64 %49, ptr %9, align 8, !tbaa !30
  br label %64

50:                                               ; preds = %36
  %51 = load ptr, ptr %8, align 8, !tbaa !22
  %52 = getelementptr inbounds nuw %struct.SubfileContext, ptr %51, i32 0, i32 4
  %53 = load i64, ptr %52, align 8, !tbaa !29
  %54 = load i64, ptr %6, align 8, !tbaa !30
  %55 = add nsw i64 %53, %54
  store i64 %55, ptr %9, align 8, !tbaa !30
  br label %64

56:                                               ; preds = %36
  %57 = load i64, ptr %10, align 8, !tbaa !30
  %58 = load i64, ptr %6, align 8, !tbaa !30
  %59 = add nsw i64 %57, %58
  store i64 %59, ptr %9, align 8, !tbaa !30
  br label %64

60:                                               ; preds = %36
  br label %61

61:                                               ; preds = %60
  call void (ptr, i32, ptr, ...) @av_log(ptr noundef null, i32 noundef 0, ptr noundef @.str.5, ptr noundef @.str.6, ptr noundef @.str.7, i32 noundef 140)
  call void @abort() #7
  unreachable

62:                                               ; No predecessors!
  br label %63

63:                                               ; preds = %62
  br label %64

64:                                               ; preds = %63, %56, %50, %44
  %65 = load i64, ptr %9, align 8, !tbaa !30
  %66 = load ptr, ptr %8, align 8, !tbaa !22
  %67 = getelementptr inbounds nuw %struct.SubfileContext, ptr %66, i32 0, i32 2
  %68 = load i64, ptr %67, align 8, !tbaa !26
  %69 = icmp slt i64 %65, %68
  br i1 %69, label %70, label %71

70:                                               ; preds = %64
  store i64 -22, ptr %4, align 8
  store i32 1, ptr %12, align 4
  br label %89

71:                                               ; preds = %64
  %72 = load i64, ptr %9, align 8, !tbaa !30
  %73 = load ptr, ptr %8, align 8, !tbaa !22
  %74 = getelementptr inbounds nuw %struct.SubfileContext, ptr %73, i32 0, i32 4
  store i64 %72, ptr %74, align 8, !tbaa !29
  %75 = load ptr, ptr %5, align 8, !tbaa !4
  %76 = call i32 @slave_seek(ptr noundef %75)
  store i32 %76, ptr %11, align 4, !tbaa !11
  %77 = icmp slt i32 %76, 0
  br i1 %77, label %78, label %81

78:                                               ; preds = %71
  %79 = load i32, ptr %11, align 4, !tbaa !11
  %80 = sext i32 %79 to i64
  store i64 %80, ptr %4, align 8
  store i32 1, ptr %12, align 4
  br label %89

81:                                               ; preds = %71
  %82 = load ptr, ptr %8, align 8, !tbaa !22
  %83 = getelementptr inbounds nuw %struct.SubfileContext, ptr %82, i32 0, i32 4
  %84 = load i64, ptr %83, align 8, !tbaa !29
  %85 = load ptr, ptr %8, align 8, !tbaa !22
  %86 = getelementptr inbounds nuw %struct.SubfileContext, ptr %85, i32 0, i32 2
  %87 = load i64, ptr %86, align 8, !tbaa !26
  %88 = sub nsw i64 %84, %87
  store i64 %88, ptr %4, align 8
  store i32 1, ptr %12, align 4
  br label %89

89:                                               ; preds = %81, %78, %70, %38, %33
  call void @llvm.lifetime.end.p0(i64 4, ptr %11) #6
  call void @llvm.lifetime.end.p0(i64 8, ptr %10) #6
  call void @llvm.lifetime.end.p0(i64 8, ptr %9) #6
  call void @llvm.lifetime.end.p0(i64 8, ptr %8) #6
  %90 = load i64, ptr %4, align 8
  ret i64 %90
}