; Function Attrs: nounwind uwtable
define internal i64 @subfile_seek(ptr noundef %0, i64 noundef %1, i32 noundef %2) #0 {
  %4 = alloca [64 x i8], align 1
  %5 = getelementptr inbounds nuw i8, ptr %0, i64 16
  %6 = load ptr, ptr %5, align 8, !tbaa !9
  switch i32 %2, label %16 [
    i32 65536, label %7
    i32 2, label %7
  ]

7:                                                ; preds = %3, %3
  %8 = getelementptr inbounds nuw i8, ptr %6, i64 24
  %9 = load i64, ptr %8, align 8, !tbaa !16
  %10 = icmp eq i64 %9, 9223372036854775807
  br i1 %10, label %11, label %16

11:                                               ; preds = %7
  %12 = getelementptr inbounds nuw i8, ptr %6, i64 8
  %13 = load ptr, ptr %12, align 8, !tbaa !23
  %14 = tail call i64 @ffurl_seek2(ptr noundef %13, i64 noundef 0, i32 noundef 65536) #6
  %15 = icmp slt i64 %14, 0
  br i1 %15, label %49, label %16

16:                                               ; preds = %3, %7, %11
  %.025 = phi i64 [ %14, %11 ], [ %9, %7 ], [ undef, %3 ]
  switch i32 %2, label %22 [
    i32 65536, label %17
    i32 0, label %.sink.split
    i32 1, label %21
    i32 2, label %25
  ]

17:                                               ; preds = %16
  %18 = getelementptr inbounds nuw i8, ptr %6, i64 16
  %19 = load i64, ptr %18, align 8, !tbaa !19
  %20 = sub nsw i64 %.025, %19
  br label %49

21:                                               ; preds = %16
  br label %.sink.split

22:                                               ; preds = %16
  tail call void (ptr, i32, ptr, ...) @av_log(ptr noundef null, i32 noundef 0, ptr noundef nonnull @.str.5, ptr noundef nonnull @.str.6, ptr noundef nonnull @.str.7, i32 noundef 140) #6
  tail call void @abort() #7
  unreachable

.sink.split:                                      ; preds = %16, %21
  %.sink31 = phi i64 [ 32, %21 ], [ 16, %16 ]
  %23 = getelementptr inbounds nuw i8, ptr %6, i64 %.sink31
  %24 = load i64, ptr %23, align 8, !tbaa !24
  br label %25

25:                                               ; preds = %.sink.split, %16
  %.025.pn = phi i64 [ %.025, %16 ], [ %24, %.sink.split ]
  %.026 = add nsw i64 %.025.pn, %1
  %26 = getelementptr inbounds nuw i8, ptr %6, i64 16
  %27 = load i64, ptr %26, align 8, !tbaa !19
  %28 = icmp slt i64 %.026, %27
  br i1 %28, label %49, label %29

29:                                               ; preds = %25
  %30 = getelementptr inbounds nuw i8, ptr %6, i64 32
  store i64 %.026, ptr %30, align 8, !tbaa !22
  call void @llvm.lifetime.start.p0(i64 64, ptr nonnull %4)
  %31 = load ptr, ptr %5, align 8, !tbaa !9
  %32 = getelementptr inbounds nuw i8, ptr %31, i64 8
  %33 = load ptr, ptr %32, align 8, !tbaa !23
  %34 = getelementptr inbounds nuw i8, ptr %31, i64 32
  %35 = load i64, ptr %34, align 8, !tbaa !22
  %36 = tail call i64 @ffurl_seek2(ptr noundef %33, i64 noundef %35, i32 noundef 0) #6
  %37 = load i64, ptr %34, align 8, !tbaa !22
  %.not.i = icmp eq i64 %36, %37
  br i1 %.not.i, label %slave_seek.exit.thread, label %slave_seek.exit

slave_seek.exit.thread:                           ; preds = %29
  call void @llvm.lifetime.end.p0(i64 64, ptr nonnull %4)
  br label %45

slave_seek.exit:                                  ; preds = %29
  %38 = icmp sgt i64 %36, -1
  call void @llvm.memset.p0.i64(ptr noundef nonnull align 1 dereferenceable(64) %4, i8 0, i64 64, i1 false)
  %39 = trunc i64 %36 to i32
  %40 = select i1 %38, i32 -558323010, i32 %39
  %41 = call i32 @av_strerror(i32 noundef %40, ptr noundef nonnull %4, i64 noundef 64) #6
  call void (ptr, i32, ptr, ...) @av_log(ptr noundef nonnull %0, i32 noundef 16, ptr noundef nonnull @.str.4, ptr noundef nonnull %4) #6
  call void @llvm.lifetime.end.p0(i64 64, ptr nonnull %4)
  %42 = icmp slt i32 %40, 0
  br i1 %42, label %43, label %45

43:                                               ; preds = %slave_seek.exit
  %44 = sext i32 %40 to i64
  br label %49

45:                                               ; preds = %slave_seek.exit.thread, %slave_seek.exit
  %46 = load i64, ptr %30, align 8, !tbaa !22
  %47 = load i64, ptr %26, align 8, !tbaa !19
  %48 = sub nsw i64 %46, %47
  br label %49

49:                                               ; preds = %25, %11, %45, %43, %17
  %.0 = phi i64 [ %44, %43 ], [ %48, %45 ], [ %20, %17 ], [ %14, %11 ], [ -22, %25 ]
  ret i64 %.0
}